target datalayout = "e-m:e-p270:32:32-p271:32:32-p272:64:64-i64:64-i128:128-f80:128-n8:16:32:64-S128"
target triple = "x86_64-pc-linux-gnu"

%struct._zval_struct = type { %union._zend_value, %union.anon, %union.anon.3 }
%union._zend_value = type { i64 }
%union.anon = type { i32 }
%union.anon.3 = type { i32 }
%struct._zend_op_array = type { i8, [3 x i8], i32, ptr, ptr, ptr, i32, i32, ptr, ptr, ptr, ptr, i32, ptr, i32, i32, i32, ptr, ptr, ptr, ptr, ptr, i32, i32, ptr, ptr, ptr, i32, i32, i32, i32, ptr, ptr, [6 x ptr] }
%struct._zend_op = type { ptr, %union._znode_op, %union._znode_op, %union._znode_op, i32, i32, i8, i8, i8, i8 }
%union._znode_op = type { i32 }
%struct._zend_array = type { %struct._zend_refcounted_h, %union.anon.5, i32, %union.anon.7, i32, i32, i32, i32, i64, ptr }
%struct._zend_refcounted_h = type { i32, %union.anon.4 }
%union.anon.4 = type { i32 }
%union.anon.5 = type { i32 }
%union.anon.7 = type { ptr }
%struct.anon.1 = type { i8, i8, %union.anon.2 }
%union.anon.2 = type { i16 }
%struct._zend_class_entry = type { i8, ptr, %union.anon.9, i32, i32, i32, i32, ptr, ptr, ptr, %struct._zend_array, %struct._zend_array, %struct._zend_array, ptr, ptr, ptr, ptr, ptr, ptr, ptr, ptr, ptr, ptr, ptr, ptr, ptr, ptr, ptr, ptr, ptr, ptr, ptr, %union.anon.10, ptr, ptr, ptr, ptr, i32, i32, i32, i32, %union.anon.11, ptr, ptr, ptr, ptr, i32, ptr, ptr, %union.anon.12 }
%union.anon.9 = type { ptr }
%union.anon.10 = type { ptr }
%union.anon.11 = type { ptr }
%union.anon.12 = type { %struct.anon.13 }
%struct.anon.13 = type { ptr, i32, i32 }

; Function Attrs: alwaysinline nounwind uwtable
define internal zeroext i8 @zval_get_type(ptr noundef %0) #1 {
  %2 = alloca ptr, align 8
  store ptr %0, ptr %2, align 8, !tbaa !9
  %3 = load ptr, ptr %2, align 8, !tbaa !9
  %4 = getelementptr inbounds nuw %struct._zval_struct, ptr %3, i32 0, i32 1
  %5 = getelementptr inbounds nuw %struct.anon.1, ptr %4, i32 0, i32 0
  %6 = load i8, ptr %5, align 8, !tbaa !17
  ret i8 %6
}

; Function Attrs: nounwind uwtable
define hidden ptr @zend_optimizer_get_class_entry_from_op1(ptr noundef %0, ptr noundef %1, ptr noundef %2) #0 {
  %4 = alloca ptr, align 8
  %5 = alloca ptr, align 8
  %6 = alloca ptr, align 8
  %7 = alloca ptr, align 8
  %8 = alloca ptr, align 8
  %9 = alloca i32, align 4
  store ptr %0, ptr %5, align 8, !tbaa !129
  store ptr %1, ptr %6, align 8, !tbaa !98
  store ptr %2, ptr %7, align 8, !tbaa !100
  %10 = load ptr, ptr %7, align 8, !tbaa !100
  %11 = getelementptr inbounds nuw %struct._zend_op, ptr %10, i32 0, i32 7
  %12 = load i8, ptr %11, align 1, !tbaa !101
  %13 = zext i8 %12 to i32
  %14 = icmp eq i32 %13, 1
  br i1 %14, label %15, label %55

15:                                               ; preds = %3
  call void @llvm.lifetime.start.p0(i64 8, ptr %8) #13
  %16 = load ptr, ptr %6, align 8, !tbaa !98
  %17 = getelementptr inbounds nuw %struct._zend_op_array, ptr %16, i32 0, i32 2
  %18 = load i32, ptr %17, align 4, !tbaa !126
  %19 = and i32 %18, 33554432
  %20 = icmp ne i32 %19, 0
  br i1 %20, label %21, label %28

21:                                               ; preds = %15
  %22 = load ptr, ptr %7, align 8, !tbaa !100
  %23 = load ptr, ptr %7, align 8, !tbaa !100
  %24 = getelementptr inbounds nuw %struct._zend_op, ptr %23, i32 0, i32 1
  %25 = load i32, ptr %24, align 8, !tbaa !17
  %26 = sext i32 %25 to i64
  %27 = getelementptr inbounds i8, ptr %22, i64 %26
  br label %37

28:                                               ; preds = %15
  %29 = load ptr, ptr %6, align 8, !tbaa !98
  %30 = getelementptr inbounds nuw %struct._zend_op_array, ptr %29, i32 0, i32 31
  %31 = load ptr, ptr %30, align 8, !tbaa !106
  %32 = load ptr, ptr %7, align 8, !tbaa !100
  %33 = getelementptr inbounds nuw %struct._zend_op, ptr %32, i32 0, i32 1
  %34 = load i32, ptr %33, align 8, !tbaa !17
  %35 = zext i32 %34 to i64
  %36 = getelementptr inbounds nuw %struct._zval_struct, ptr %31, i64 %35
  br label %37

37:                                               ; preds = %28, %21
  %38 = phi ptr [ %27, %21 ], [ %36, %28 ]
  store ptr %38, ptr %8, align 8, !tbaa !9
  %39 = load ptr, ptr %8, align 8, !tbaa !9
  %40 = call zeroext i8 @zval_get_type(ptr noundef %39)
  %41 = zext i8 %40 to i32
  %42 = icmp eq i32 %41, 6
  br i1 %42, label %43, label %51

43:                                               ; preds = %37
  %44 = load ptr, ptr %5, align 8, !tbaa !129
  %45 = load ptr, ptr %6, align 8, !tbaa !98
  %46 = load ptr, ptr %8, align 8, !tbaa !9
  %47 = getelementptr inbounds %struct._zval_struct, ptr %46, i64 1
  %48 = getelementptr inbounds nuw %struct._zval_struct, ptr %47, i32 0, i32 0
  %49 = load ptr, ptr %48, align 8, !tbaa !17
  %50 = call ptr @zend_optimizer_get_class_entry(ptr noundef %44, ptr noundef %45, ptr noundef %49)
  store ptr %50, ptr %4, align 8
  store i32 1, ptr %9, align 4
  br label %52

51:                                               ; preds = %37
  store i32 0, ptr %9, align 4
  br label %52

52:                                               ; preds = %51, %43
  call void @llvm.lifetime.end.p0(i64 8, ptr %8) #13
  %53 = load i32, ptr %9, align 4
  switch i32 %53, label %102 [
    i32 0, label %54
    i32 1, label %100
  ]

54:                                               ; preds = %52
  br label %99

55:                                               ; preds = %3
  %56 = load ptr, ptr %7, align 8, !tbaa !100
  %57 = getelementptr inbounds nuw %struct._zend_op, ptr %56, i32 0, i32 7
  %58 = load i8, ptr %57, align 1, !tbaa !101
  %59 = zext i8 %58 to i32
  %60 = icmp eq i32 %59, 0
  br i1 %60, label %61, label %98

61:                                               ; preds = %55
  %62 = load ptr, ptr %6, align 8, !tbaa !98
  %63 = getelementptr inbounds nuw %struct._zend_op_array, ptr %62, i32 0, i32 4
  %64 = load ptr, ptr %63, align 8, !tbaa !142
  %65 = icmp ne ptr %64, null
  br i1 %65, label %66, label %98

66:                                               ; preds = %61
  %67 = load ptr, ptr %6, align 8, !tbaa !98
  %68 = getelementptr inbounds nuw %struct._zend_op_array, ptr %67, i32 0, i32 4
  %69 = load ptr, ptr %68, align 8, !tbaa !142
  %70 = getelementptr inbounds nuw %struct._zend_class_entry, ptr %69, i32 0, i32 4
  %71 = load i32, ptr %70, align 4, !tbaa !154
  %72 = and i32 %71, 2
  %73 = icmp ne i32 %72, 0
  br i1 %73, label %98, label %74

74:                                               ; preds = %66
  %75 = load ptr, ptr %7, align 8, !tbaa !100
  %76 = getelementptr inbounds nuw %struct._zend_op, ptr %75, i32 0, i32 1
  %77 = load i32, ptr %76, align 8, !tbaa !17
  %78 = and i32 %77, 15
  %79 = icmp eq i32 %78, 1
  br i1 %79, label %94, label %80

80:                                               ; preds = %74
  %81 = load ptr, ptr %7, align 8, !tbaa !100
  %82 = getelementptr inbounds nuw %struct._zend_op, ptr %81, i32 0, i32 1
  %83 = load i32, ptr %82, align 8, !tbaa !17
  %84 = and i32 %83, 15
  %85 = icmp eq i32 %84, 3
  br i1 %85, label %86, label %98

86:                                               ; preds = %80
  %87 = load ptr, ptr %6, align 8, !tbaa !98
  %88 = getelementptr inbounds nuw %struct._zend_op_array, ptr %87, i32 0, i32 4
  %89 = load ptr, ptr %88, align 8, !tbaa !142
  %90 = getelementptr inbounds nuw %struct._zend_class_entry, ptr %89, i32 0, i32 4
  %91 = load i32, ptr %90, align 4, !tbaa !154
  %92 = and i32 %91, 32
  %93 = icmp ne i32 %92, 0
  br i1 %93, label %94, label %98

94:                                               ; preds = %86, %74
  %95 = load ptr, ptr %6, align 8, !tbaa !98
  %96 = getelementptr inbounds nuw %struct._zend_op_array, ptr %95, i32 0, i32 4
  %97 = load ptr, ptr %96, align 8, !tbaa !142
  store ptr %97, ptr %4, align 8
  br label %100

98:                                               ; preds = %86, %80, %66, %61, %55
  br label %99

99:                                               ; preds = %98, %54
  store ptr null, ptr %4, align 8
  br label %100

100:                                              ; preds = %99, %94, %52
  %101 = load ptr, ptr %4, align 8
  ret ptr %101

102:                                              ; preds = %52
  unreachable
}