; Function Attrs: nounwind uwtable
define hidden ptr @zend_optimizer_get_class_entry_from_op1(ptr noundef %0, ptr noundef captures(address_is_null) %1, ptr noundef readonly captures(none) %2) local_unnamed_addr #0 {
  %4 = getelementptr inbounds nuw i8, ptr %2, i64 29
  %5 = load i8, ptr %4, align 1, !tbaa !82
  switch i8 %5, label %.thread [
    i8 1, label %6
    i8 0, label %31
  ]

6:                                                ; preds = %3
  %7 = getelementptr inbounds nuw i8, ptr %1, i64 4
  %8 = load i32, ptr %7, align 4, !tbaa !104
  %9 = and i32 %8, 33554432
  %.not24 = icmp eq i32 %9, 0
  br i1 %.not24, label %15, label %10

10:                                               ; preds = %6
  %11 = getelementptr inbounds nuw i8, ptr %2, i64 8
  %12 = load i32, ptr %11, align 8, !tbaa !20
  %13 = sext i32 %12 to i64
  %14 = getelementptr inbounds i8, ptr %2, i64 %13
  br label %22

15:                                               ; preds = %6
  %16 = getelementptr inbounds nuw i8, ptr %1, i64 192
  %17 = load ptr, ptr %16, align 8, !tbaa !87
  %18 = getelementptr inbounds nuw i8, ptr %2, i64 8
  %19 = load i32, ptr %18, align 8, !tbaa !20
  %20 = zext i32 %19 to i64
  %21 = getelementptr inbounds nuw %struct._zval_struct, ptr %17, i64 %20
  br label %22

22:                                               ; preds = %15, %10
  %23 = phi ptr [ %14, %10 ], [ %21, %15 ]
  %24 = getelementptr inbounds nuw i8, ptr %23, i64 8
  %25 = load i8, ptr %24, align 8, !tbaa !20
  %26 = icmp eq i8 %25, 6
  br i1 %26, label %27, label %.thread

27:                                               ; preds = %22
  %28 = getelementptr inbounds nuw i8, ptr %23, i64 16
  %29 = load ptr, ptr %28, align 8, !tbaa !20
  %30 = tail call ptr @zend_optimizer_get_class_entry(ptr noundef %0, ptr noundef nonnull %1, ptr noundef %29)
  br label %44

31:                                               ; preds = %3
  %32 = getelementptr inbounds nuw i8, ptr %1, i64 16
  %33 = load ptr, ptr %32, align 8, !tbaa !134
  %.not = icmp eq ptr %33, null
  br i1 %.not, label %.thread, label %34

34:                                               ; preds = %31
  %35 = getelementptr inbounds nuw i8, ptr %33, i64 28
  %36 = load i32, ptr %35, align 4, !tbaa !120
  %37 = and i32 %36, 2
  %.not22 = icmp eq i32 %37, 0
  br i1 %.not22, label %38, label %.thread

38:                                               ; preds = %34
  %39 = getelementptr inbounds nuw i8, ptr %2, i64 8
  %40 = load i32, ptr %39, align 8, !tbaa !20
  %41 = and i32 %40, 15
  switch i32 %41, label %.thread [
    i32 1, label %44
    i32 3, label %42
  ]

42:                                               ; preds = %38
  %43 = and i32 %36, 32
  %.not23 = icmp eq i32 %43, 0
  br i1 %.not23, label %.thread, label %44

.thread:                                          ; preds = %22, %38, %3, %31, %34, %42
  br label %44

44:                                               ; preds = %42, %38, %27, %.thread
  %.1 = phi ptr [ %30, %27 ], [ null, %.thread ], [ %33, %38 ], [ %33, %42 ]
  ret ptr %.1
}